target datalayout = "e-m:e-p270:32:32-p271:32:32-p272:64:64-i64:64-i128:128-f80:128-n8:16:32:64-S128"
target triple = "x86_64-pc-linux-gnu"

%struct.RBasic = type { i64, i64 }
%struct.open_struct = type { i64, i32, i32, i32, i32 }
%struct.RString = type { %struct.RBasic, i64, %union.anon.33 }
%union.anon.33 = type { %struct.anon.34 }
%struct.anon.34 = type { ptr, %union.anon.35 }
%union.anon.35 = type { i64 }
%struct.anon.36 = type { [1 x i8] }

; Function Attrs: inlinehint nounwind sspstrong willreturn memory(read) uwtable
define internal i64 @RB_FL_TEST_RAW(i64 noundef %0, i64 noundef %1) #5 {
  %3 = alloca i64, align 8
  %4 = alloca i64, align 8
  store i64 %0, ptr %3, align 8, !tbaa !35
  store i64 %1, ptr %4, align 8, !tbaa !35
  %5 = load i64, ptr %3, align 8, !tbaa !35
  %6 = inttoptr i64 %5 to ptr
  %7 = getelementptr inbounds nuw %struct.RBasic, ptr %6, i32 0, i32 0
  %8 = load i64, ptr %7, align 8, !tbaa !215
  %9 = load i64, ptr %4, align 8, !tbaa !35
  %10 = and i64 %8, %9
  ret i64 %10
}

; Function Attrs: inlinehint nounwind sspstrong willreturn memory(read) uwtable
define internal i64 @RSTRING_LEN(i64 noundef %0) #5 {
  %2 = alloca i64, align 8
  store i64 %0, ptr %2, align 8, !tbaa !35
  %3 = load i64, ptr %2, align 8, !tbaa !35
  %4 = inttoptr i64 %3 to ptr
  %5 = getelementptr inbounds nuw %struct.RString, ptr %4, i32 0, i32 1
  %6 = load i64, ptr %5, align 8, !tbaa !266
  ret i64 %6
}

; Function Attrs: inlinehint nounwind sspstrong willreturn memory(read) uwtable
define internal zeroext i1 @RB_FL_ANY_RAW(i64 noundef %0, i64 noundef %1) #5 {
  %3 = alloca i64, align 8
  %4 = alloca i64, align 8
  store i64 %0, ptr %3, align 8, !tbaa !35
  store i64 %1, ptr %4, align 8, !tbaa !35
  %5 = load i64, ptr %3, align 8, !tbaa !35
  %6 = load i64, ptr %4, align 8, !tbaa !35
  %7 = call i64 @RB_FL_TEST_RAW(i64 noundef %5, i64 noundef %6) #29
  %8 = icmp ne i64 %7, 0
  ret i1 %8
}

; Function Attrs: inlinehint nounwind sspstrong willreturn memory(read, argmem: readwrite) uwtable
define internal void @rbimpl_rstring_getmem(ptr dead_on_unwind noalias writable sret(%struct.RString) align 8 %0, i64 noundef %1) #21 {
  %3 = alloca i64, align 8
  store i64 %1, ptr %3, align 8, !tbaa !35
  %4 = load i64, ptr %3, align 8, !tbaa !35
  %5 = call zeroext i1 @RB_FL_ANY_RAW(i64 noundef %4, i64 noundef 8192) #29
  br i1 %5, label %6, label %9

6:                                                ; preds = %2
  %7 = load i64, ptr %3, align 8, !tbaa !35
  %8 = inttoptr i64 %7 to ptr
  call void @llvm.memcpy.p0.p0.i64(ptr align 8 %0, ptr align 8 %8, i64 40, i1 false), !tbaa.struct !274
  br label %20

9:                                                ; preds = %2
  %10 = load i64, ptr %3, align 8, !tbaa !35
  %11 = call i64 @RSTRING_LEN(i64 noundef %10) #29
  %12 = getelementptr inbounds nuw %struct.RString, ptr %0, i32 0, i32 1
  store i64 %11, ptr %12, align 8, !tbaa !266
  %13 = load i64, ptr %3, align 8, !tbaa !35
  %14 = inttoptr i64 %13 to ptr
  %15 = getelementptr inbounds nuw %struct.RString, ptr %14, i32 0, i32 2
  %16 = getelementptr inbounds nuw %struct.anon.36, ptr %15, i32 0, i32 0
  %17 = getelementptr inbounds [1 x i8], ptr %16, i64 0, i64 0
  %18 = getelementptr inbounds nuw %struct.RString, ptr %0, i32 0, i32 2
  %19 = getelementptr inbounds nuw %struct.anon.34, ptr %18, i32 0, i32 0
  store ptr %17, ptr %19, align 8, !tbaa !66
  br label %20

20:                                               ; preds = %9, %6
  ret void
}

; Function Attrs: inlinehint nounwind sspstrong uwtable
define internal ptr @RSTRING_PTR(i64 noundef %0) #1 {
  %2 = alloca i64, align 8
  %3 = alloca ptr, align 8
  %4 = alloca %struct.RString, align 8
  store i64 %0, ptr %2, align 8, !tbaa !35
  call void @llvm.lifetime.start.p0(i64 8, ptr %3) #27
  %5 = load i64, ptr %2, align 8, !tbaa !35
  call void @rbimpl_rstring_getmem(ptr dead_on_unwind writable sret(%struct.RString) align 8 %4, i64 noundef %5) #33
  %6 = getelementptr inbounds nuw %struct.RString, ptr %4, i32 0, i32 2
  %7 = getelementptr inbounds nuw %struct.anon.34, ptr %6, i32 0, i32 0
  %8 = load ptr, ptr %7, align 8, !tbaa !66
  store ptr %8, ptr %3, align 8, !tbaa !64
  %9 = load ptr, ptr %3, align 8, !tbaa !64
  call void @llvm.lifetime.end.p0(i64 8, ptr %3) #27
  ret ptr %9
}

; Function Attrs: nounwind sspstrong uwtable
define internal ptr @open_func(ptr noundef %0) #0 {
  %2 = alloca ptr, align 8
  %3 = alloca ptr, align 8
  %4 = alloca ptr, align 8
  store ptr %0, ptr %2, align 8, !tbaa !62
  call void @llvm.lifetime.start.p0(i64 8, ptr %3) #27
  %5 = load ptr, ptr %2, align 8, !tbaa !62
  store ptr %5, ptr %3, align 8, !tbaa !268
  call void @llvm.lifetime.start.p0(i64 8, ptr %4) #27
  %6 = load ptr, ptr %3, align 8, !tbaa !268
  %7 = getelementptr inbounds nuw %struct.open_struct, ptr %6, i32 0, i32 0
  %8 = load i64, ptr %7, align 8, !tbaa !93
  %9 = call ptr @RSTRING_PTR(i64 noundef %8)
  store ptr %9, ptr %4, align 8, !tbaa !64
  %10 = load ptr, ptr %4, align 8, !tbaa !64
  %11 = load ptr, ptr %3, align 8, !tbaa !268
  %12 = getelementptr inbounds nuw %struct.open_struct, ptr %11, i32 0, i32 1
  %13 = load i32, ptr %12, align 8, !tbaa !95
  %14 = load ptr, ptr %3, align 8, !tbaa !268
  %15 = getelementptr inbounds nuw %struct.open_struct, ptr %14, i32 0, i32 2
  %16 = load i32, ptr %15, align 4, !tbaa !96
  %17 = call i32 @rb_cloexec_open(ptr noundef %10, i32 noundef %13, i32 noundef %16)
  %18 = load ptr, ptr %3, align 8, !tbaa !268
  %19 = getelementptr inbounds nuw %struct.open_struct, ptr %18, i32 0, i32 3
  store i32 %17, ptr %19, align 8, !tbaa !97
  %20 = call ptr @rb_errno_ptr()
  %21 = load i32, ptr %20, align 4, !tbaa !34
  %22 = load ptr, ptr %3, align 8, !tbaa !268
  %23 = getelementptr inbounds nuw %struct.open_struct, ptr %22, i32 0, i32 4
  store i32 %21, ptr %23, align 4, !tbaa !98
  call void @llvm.lifetime.end.p0(i64 8, ptr %4) #27
  call void @llvm.lifetime.end.p0(i64 8, ptr %3) #27
  ret ptr null
}