; Function Attrs: nounwind sspstrong uwtable
define internal noalias noundef ptr @open_func(ptr noundef captures(none) initializes((16, 24)) %0) #1 {
  %2 = load i64, ptr %0, align 8, !tbaa !139
  %3 = inttoptr i64 %2 to ptr
  %4 = load i64, ptr %3, align 8, !tbaa !69, !noalias !309
  %5 = and i64 %4, 8192
  %.not.i.i = icmp eq i64 %5, 0
  %6 = getelementptr inbounds nuw i8, ptr %3, i64 24
  br i1 %.not.i.i, label %RSTRING_PTR.exit, label %7

7:                                                ; preds = %1
  %.sroa.2.0.copyload.i = load ptr, ptr %6, align 8
  br label %RSTRING_PTR.exit

RSTRING_PTR.exit:                                 ; preds = %1, %7
  %.sroa.2.0.i = phi ptr [ %.sroa.2.0.copyload.i, %7 ], [ %6, %1 ]
  %8 = getelementptr inbounds nuw i8, ptr %0, i64 8
  %9 = load i32, ptr %8, align 8, !tbaa !141
  %10 = getelementptr inbounds nuw i8, ptr %0, i64 12
  %11 = load i32, ptr %10, align 4, !tbaa !142
  %12 = tail call i32 @rb_cloexec_open(ptr noundef %.sroa.2.0.i, i32 noundef %9, i32 noundef %11) #27
  %13 = getelementptr inbounds nuw i8, ptr %0, i64 16
  store i32 %12, ptr %13, align 8, !tbaa !143
  %14 = tail call ptr @rb_errno_ptr() #27
  %15 = load i32, ptr %14, align 4, !tbaa !60
  %16 = getelementptr inbounds nuw i8, ptr %0, i64 20
  store i32 %15, ptr %16, align 4, !tbaa !144
  ret ptr null
}